target datalayout = "e-m:e-p270:32:32-p271:32:32-p272:64:64-i64:64-i128:128-f80:128-n8:16:32:64-S128"
target triple = "x86_64-pc-linux-gnu"

%struct.List = type { i32, i32, i32, ptr, [0 x %union.ListCell] }
%union.ListCell = type { ptr }
%struct.RangeVar = type { i32, ptr, ptr, ptr, i8, i8, ptr, i32 }

@.str.7 = private unnamed_addr constant [37 x i8] c"schema \22%s\22 does not exist, skipping\00", align 1
@.str.33 = private unnamed_addr constant [39 x i8] c"relation \22%s\22 does not exist, skipping\00", align 1

; Function Attrs: nounwind uwtable
define internal zeroext i1 @schema_does_not_exist_skipping(ptr noundef %0, ptr noundef %1, ptr noundef %2) #0 {
  %4 = alloca i1, align 1
  %5 = alloca ptr, align 8
  %6 = alloca ptr, align 8
  %7 = alloca ptr, align 8
  %8 = alloca ptr, align 8
  %9 = alloca i32, align 4
  store ptr %0, ptr %5, align 8
  store ptr %1, ptr %6, align 8
  store ptr %2, ptr %7, align 8
  call void @llvm.lifetime.start.p0(i64 8, ptr %8) #7
  %10 = load ptr, ptr %5, align 8
  %11 = call ptr @makeRangeVarFromNameList(ptr noundef %10)
  store ptr %11, ptr %8, align 8
  %12 = load ptr, ptr %8, align 8
  %13 = getelementptr inbounds nuw %struct.RangeVar, ptr %12, i32 0, i32 2
  %14 = load ptr, ptr %13, align 8
  %15 = icmp ne ptr %14, null
  br i1 %15, label %16, label %28

16:                                               ; preds = %3
  %17 = load ptr, ptr %8, align 8
  %18 = getelementptr inbounds nuw %struct.RangeVar, ptr %17, i32 0, i32 2
  %19 = load ptr, ptr %18, align 8
  %20 = call i32 @LookupNamespaceNoError(ptr noundef %19)
  %21 = icmp ne i32 %20, 0
  br i1 %21, label %28, label %22

22:                                               ; preds = %16
  %23 = load ptr, ptr %6, align 8
  store ptr @.str.7, ptr %23, align 8
  %24 = load ptr, ptr %8, align 8
  %25 = getelementptr inbounds nuw %struct.RangeVar, ptr %24, i32 0, i32 2
  %26 = load ptr, ptr %25, align 8
  %27 = load ptr, ptr %7, align 8
  store ptr %26, ptr %27, align 8
  store i1 true, ptr %4, align 1
  store i32 1, ptr %9, align 4
  br label %29

28:                                               ; preds = %16, %3
  store i1 false, ptr %4, align 1
  store i32 1, ptr %9, align 4
  br label %29

29:                                               ; preds = %28, %22
  call void @llvm.lifetime.end.p0(i64 8, ptr %8) #7
  %30 = load i1, ptr %4, align 1
  ret i1 %30
}

; Function Attrs: inlinehint nounwind uwtable
define internal i32 @list_length(ptr noundef %0) #6 {
  %2 = alloca ptr, align 8
  store ptr %0, ptr %2, align 8
  %3 = load ptr, ptr %2, align 8
  %4 = icmp ne ptr %3, null
  br i1 %4, label %5, label %9

5:                                                ; preds = %1
  %6 = load ptr, ptr %2, align 8
  %7 = getelementptr inbounds nuw %struct.List, ptr %6, i32 0, i32 1
  %8 = load i32, ptr %7, align 4
  br label %10

9:                                                ; preds = %1
  br label %10

10:                                               ; preds = %9, %5
  %11 = phi i32 [ %8, %5 ], [ 0, %9 ]
  ret i32 %11
}

; Function Attrs: nounwind uwtable
define internal zeroext i1 @owningrel_does_not_exist_skipping(ptr noundef %0, ptr noundef %1, ptr noundef %2) #0 {
  %4 = alloca i1, align 1
  %5 = alloca ptr, align 8
  %6 = alloca ptr, align 8
  %7 = alloca ptr, align 8
  %8 = alloca ptr, align 8
  %9 = alloca ptr, align 8
  %10 = alloca i32, align 4
  store ptr %0, ptr %5, align 8
  store ptr %1, ptr %6, align 8
  store ptr %2, ptr %7, align 8
  call void @llvm.lifetime.start.p0(i64 8, ptr %8) #7
  call void @llvm.lifetime.start.p0(i64 8, ptr %9) #7
  %11 = load ptr, ptr %5, align 8
  %12 = load ptr, ptr %5, align 8
  %13 = call i32 @list_length(ptr noundef %12)
  %14 = sub i32 %13, 1
  %15 = call ptr @list_copy_head(ptr noundef %11, i32 noundef %14)
  store ptr %15, ptr %8, align 8
  %16 = load ptr, ptr %8, align 8
  %17 = load ptr, ptr %6, align 8
  %18 = load ptr, ptr %7, align 8
  %19 = call zeroext i1 @schema_does_not_exist_skipping(ptr noundef %16, ptr noundef %17, ptr noundef %18)
  br i1 %19, label %20, label %21

20:                                               ; preds = %3
  store i1 true, ptr %4, align 1
  store i32 1, ptr %10, align 4
  br label %33

21:                                               ; preds = %3
  %22 = load ptr, ptr %8, align 8
  %23 = call ptr @makeRangeVarFromNameList(ptr noundef %22)
  store ptr %23, ptr %9, align 8
  %24 = load ptr, ptr %9, align 8
  %25 = call i32 @RangeVarGetRelidExtended(ptr noundef %24, i32 noundef 0, i32 noundef 1, ptr noundef null, ptr noundef null)
  %26 = icmp ne i32 %25, 0
  br i1 %26, label %32, label %27

27:                                               ; preds = %21
  %28 = load ptr, ptr %6, align 8
  store ptr @.str.33, ptr %28, align 8
  %29 = load ptr, ptr %8, align 8
  %30 = call ptr @NameListToString(ptr noundef %29)
  %31 = load ptr, ptr %7, align 8
  store ptr %30, ptr %31, align 8
  store i1 true, ptr %4, align 1
  store i32 1, ptr %10, align 4
  br label %33

32:                                               ; preds = %21
  store i1 false, ptr %4, align 1
  store i32 1, ptr %10, align 4
  br label %33

33:                                               ; preds = %32, %27, %20
  call void @llvm.lifetime.end.p0(i64 8, ptr %9) #7
  call void @llvm.lifetime.end.p0(i64 8, ptr %8) #7
  %34 = load i1, ptr %4, align 1
  ret i1 %34
}