; Function Attrs: nounwind uwtable
define internal fastcc noundef zeroext i1 @owningrel_does_not_exist_skipping(ptr noundef %0, ptr noundef nonnull writeonly captures(none) %1, ptr noundef nonnull writeonly captures(none) %2) unnamed_addr #0 {
  %.not.i = icmp eq ptr %0, null
  br i1 %.not.i, label %list_length.exit, label %4

4:                                                ; preds = %3
  %5 = getelementptr inbounds nuw i8, ptr %0, i64 4
  %6 = load i32, ptr %5, align 4
  %7 = add i32 %6, -1
  br label %list_length.exit

list_length.exit:                                 ; preds = %3, %4
  %8 = phi i32 [ %7, %4 ], [ -1, %3 ]
  %9 = tail call ptr @list_copy_head(ptr noundef %0, i32 noundef %8) #5
  %10 = tail call ptr @makeRangeVarFromNameList(ptr noundef %9) #5
  %11 = getelementptr inbounds nuw i8, ptr %10, i64 16
  %12 = load ptr, ptr %11, align 8
  %.not.i11 = icmp eq ptr %12, null
  br i1 %.not.i11, label %16, label %13

13:                                               ; preds = %list_length.exit
  %14 = tail call i32 @LookupNamespaceNoError(ptr noundef nonnull %12) #5
  %.not8.i = icmp eq i32 %14, 0
  br i1 %.not8.i, label %schema_does_not_exist_skipping.exit, label %16

schema_does_not_exist_skipping.exit:              ; preds = %13
  store ptr @.str.7, ptr %1, align 8
  %15 = load ptr, ptr %11, align 8
  br label %.sink.split

16:                                               ; preds = %13, %list_length.exit
  %17 = tail call ptr @makeRangeVarFromNameList(ptr noundef %9) #5
  %18 = tail call i32 @RangeVarGetRelidExtended(ptr noundef %17, i32 noundef 0, i32 noundef 1, ptr noundef null, ptr noundef null) #5
  %.not = icmp eq i32 %18, 0
  br i1 %.not, label %19, label %21

19:                                               ; preds = %16
  store ptr @.str.33, ptr %1, align 8
  %20 = tail call ptr @NameListToString(ptr noundef %9) #5
  br label %.sink.split

.sink.split:                                      ; preds = %19, %schema_does_not_exist_skipping.exit
  %.sink = phi ptr [ %15, %schema_does_not_exist_skipping.exit ], [ %20, %19 ]
  store ptr %.sink, ptr %2, align 8
  br label %21

21:                                               ; preds = %.sink.split, %16
  %.0 = phi i1 [ false, %16 ], [ true, %.sink.split ]
  ret i1 %.0
}